target datalayout = "e-m:e-p270:32:32-p271:32:32-p272:64:64-i64:64-i128:128-f80:128-n8:16:32:64-S128"
target triple = "x86_64-pc-linux-gnu"

%struct._php_conv = type { ptr, ptr }
%struct._php_conv_base64_decode = type { %struct._php_conv, i32, i32, i32, i32 }

; Function Attrs: nounwind uwtable
define internal i32 @php_conv_base64_decode_convert(ptr noundef %0, ptr noundef %1, ptr noundef %2, ptr noundef %3, ptr noundef %4) #0 {
  %6 = alloca i32, align 4
  %7 = alloca ptr, align 8
  %8 = alloca ptr, align 8
  %9 = alloca ptr, align 8
  %10 = alloca ptr, align 8
  %11 = alloca ptr, align 8
  %12 = alloca i32, align 4
  %13 = alloca i32, align 4
  %14 = alloca i32, align 4
  %15 = alloca i32, align 4
  %16 = alloca i32, align 4
  %17 = alloca ptr, align 8
  %18 = alloca ptr, align 8
  %19 = alloca i64, align 8
  %20 = alloca i64, align 8
  %21 = alloca i32, align 4
  %22 = alloca i32, align 4
  store ptr %0, ptr %7, align 8
  store ptr %1, ptr %8, align 8
  store ptr %2, ptr %9, align 8
  store ptr %3, ptr %10, align 8
  store ptr %4, ptr %11, align 8
  %23 = load ptr, ptr %8, align 8
  %24 = icmp eq ptr %23, null
  br i1 %24, label %28, label %25

25:                                               ; preds = %5
  %26 = load ptr, ptr %9, align 8
  %27 = icmp eq ptr %26, null
  br i1 %27, label %28, label %40

28:                                               ; preds = %25, %5
  %29 = load ptr, ptr %7, align 8
  %30 = getelementptr inbounds %struct._php_conv_base64_decode, ptr %29, i32 0, i32 4
  %31 = load i32, ptr %30, align 4
  %32 = icmp ne i32 %31, 0
  br i1 %32, label %38, label %33

33:                                               ; preds = %28
  %34 = load ptr, ptr %7, align 8
  %35 = getelementptr inbounds %struct._php_conv_base64_decode, ptr %34, i32 0, i32 2
  %36 = load i32, ptr %35, align 4
  %37 = icmp eq i32 %36, 0
  br i1 %37, label %38, label %39

38:                                               ; preds = %33, %28
  store i32 0, ptr %6, align 4
  br label %217

39:                                               ; preds = %33
  store i32 4, ptr %6, align 4
  br label %217

40:                                               ; preds = %25
  store i32 0, ptr %12, align 4
  %41 = load ptr, ptr %8, align 8
  %42 = load ptr, ptr %41, align 8
  store ptr %42, ptr %17, align 8
  %43 = load ptr, ptr %10, align 8
  %44 = load ptr, ptr %43, align 8
  store ptr %44, ptr %18, align 8
  %45 = load ptr, ptr %9, align 8
  %46 = load i64, ptr %45, align 8
  store i64 %46, ptr %19, align 8
  %47 = load ptr, ptr %11, align 8
  %48 = load i64, ptr %47, align 8
  store i64 %48, ptr %20, align 8
  %49 = load ptr, ptr %7, align 8
  %50 = getelementptr inbounds %struct._php_conv_base64_decode, ptr %49, i32 0, i32 1
  %51 = load i32, ptr %50, align 8
  store i32 %51, ptr %13, align 4
  %52 = load ptr, ptr %7, align 8
  %53 = getelementptr inbounds %struct._php_conv_base64_decode, ptr %52, i32 0, i32 2
  %54 = load i32, ptr %53, align 4
  store i32 %54, ptr %14, align 4
  %55 = load ptr, ptr %7, align 8
  %56 = getelementptr inbounds %struct._php_conv_base64_decode, ptr %55, i32 0, i32 3
  %57 = load i32, ptr %56, align 8
  store i32 %57, ptr %21, align 4
  store i32 0, ptr %15, align 4
  store i32 8, ptr %16, align 4
  br label %58

58:                                               ; preds = %169, %40
  %59 = load i32, ptr %16, align 4
  %60 = load i32, ptr %14, align 4
  %61 = icmp uge i32 %59, %60
  br i1 %61, label %62, label %71

62:                                               ; preds = %58
  %63 = load i32, ptr %14, align 4
  %64 = load i32, ptr %16, align 4
  %65 = sub i32 %64, %63
  store i32 %65, ptr %16, align 4
  %66 = load i32, ptr %13, align 4
  %67 = load i32, ptr %16, align 4
  %68 = shl i32 %66, %67
  %69 = load i32, ptr %15, align 4
  %70 = or i32 %69, %68
  store i32 %70, ptr %15, align 4
  store i32 0, ptr %14, align 4
  br label %85

71:                                               ; preds = %58
  %72 = load i32, ptr %16, align 4
  %73 = load i32, ptr %14, align 4
  %74 = sub i32 %73, %72
  store i32 %74, ptr %14, align 4
  %75 = load i32, ptr %13, align 4
  %76 = load i32, ptr %14, align 4
  %77 = lshr i32 %75, %76
  %78 = load i32, ptr %15, align 4
  %79 = or i32 %78, %77
  store i32 %79, ptr %15, align 4
  %80 = load i32, ptr %14, align 4
  %81 = sub i32 16, %80
  %82 = ashr i32 65535, %81
  %83 = load i32, ptr %13, align 4
  %84 = and i32 %83, %82
  store i32 %84, ptr %13, align 4
  store i32 0, ptr %16, align 4
  br label %85

85:                                               ; preds = %71, %62
  %86 = load i32, ptr %16, align 4
  %87 = icmp ugt i32 %86, 0
  br i1 %87, label %88, label %153

88:                                               ; preds = %85
  %89 = load i64, ptr %19, align 8
  %90 = icmp ult i64 %89, 1
  br i1 %90, label %91, label %92

91:                                               ; preds = %88
  br label %170

92:                                               ; preds = %88
  %93 = load ptr, ptr %17, align 8
  %94 = getelementptr inbounds i8, ptr %93, i32 1
  store ptr %94, ptr %17, align 8
  %95 = load i8, ptr %93, align 1
  %96 = zext i8 %95 to i32
  %97 = zext i32 %96 to i64
  %98 = getelementptr inbounds [256 x i32], ptr @b64_tbl_dec, i64 0, i64 %97
  %99 = load i32, ptr %98, align 4
  store i32 %99, ptr %22, align 4
  %100 = load i64, ptr %19, align 8
  %101 = add i64 %100, -1
  store i64 %101, ptr %19, align 8
  %102 = load i32, ptr %22, align 4
  %103 = and i32 %102, 128
  %104 = load i32, ptr %21, align 4
  %105 = or i32 %104, %103
  store i32 %105, ptr %21, align 4
  %106 = load i32, ptr %22, align 4
  %107 = and i32 %106, 192
  %108 = icmp ne i32 %107, 0
  br i1 %108, label %138, label %109

109:                                              ; preds = %92
  %110 = load i32, ptr %21, align 4
  %111 = icmp ne i32 %110, 0
  br i1 %111, label %112, label %113

112:                                              ; preds = %109
  store i32 3, ptr %12, align 4
  br label %170

113:                                              ; preds = %109
  %114 = load i32, ptr %16, align 4
  %115 = icmp ule i32 6, %114
  br i1 %115, label %116, label %124

116:                                              ; preds = %113
  %117 = load i32, ptr %16, align 4
  %118 = sub i32 %117, 6
  store i32 %118, ptr %16, align 4
  %119 = load i32, ptr %22, align 4
  %120 = load i32, ptr %16, align 4
  %121 = shl i32 %119, %120
  %122 = load i32, ptr %15, align 4
  %123 = or i32 %122, %121
  store i32 %123, ptr %15, align 4
  store i32 0, ptr %13, align 4
  br label %137

124:                                              ; preds = %113
  %125 = load i32, ptr %16, align 4
  %126 = sub i32 6, %125
  store i32 %126, ptr %14, align 4
  %127 = load i32, ptr %22, align 4
  %128 = load i32, ptr %14, align 4
  %129 = lshr i32 %127, %128
  %130 = load i32, ptr %15, align 4
  %131 = or i32 %130, %129
  store i32 %131, ptr %15, align 4
  %132 = load i32, ptr %22, align 4
  %133 = load i32, ptr %14, align 4
  %134 = sub i32 16, %133
  %135 = ashr i32 65535, %134
  %136 = and i32 %132, %135
  store i32 %136, ptr %13, align 4
  store i32 0, ptr %16, align 4
  br label %137

137:                                              ; preds = %124, %116
  br label %152

138:                                              ; preds = %92
  %139 = load i32, ptr %21, align 4
  %140 = icmp ne i32 %139, 0
  br i1 %140, label %141, label %151

141:                                              ; preds = %138
  %142 = load i32, ptr %16, align 4
  %143 = icmp eq i32 %142, 8
  br i1 %143, label %147, label %144

144:                                              ; preds = %141
  %145 = load i32, ptr %16, align 4
  %146 = icmp eq i32 %145, 2
  br i1 %146, label %147, label %148

147:                                              ; preds = %144, %141
  store i32 3, ptr %12, align 4
  br label %170

148:                                              ; preds = %144
  %149 = load ptr, ptr %7, align 8
  %150 = getelementptr inbounds %struct._php_conv_base64_decode, ptr %149, i32 0, i32 4
  store i32 1, ptr %150, align 4
  br label %151

151:                                              ; preds = %148, %138
  br label %152

152:                                              ; preds = %151, %137
  br label %153

153:                                              ; preds = %152, %85
  %154 = load i32, ptr %16, align 4
  %155 = load i32, ptr %21, align 4
  %156 = or i32 %154, %155
  %157 = icmp eq i32 %156, 0
  br i1 %157, label %158, label %169

158:                                              ; preds = %153
  %159 = load i64, ptr %20, align 8
  %160 = icmp ult i64 %159, 1
  br i1 %160, label %161, label %162

161:                                              ; preds = %158
  store i32 2, ptr %12, align 4
  br label %170

162:                                              ; preds = %158
  %163 = load i32, ptr %15, align 4
  %164 = trunc i32 %163 to i8
  %165 = load ptr, ptr %18, align 8
  %166 = getelementptr inbounds i8, ptr %165, i32 1
  store ptr %166, ptr %18, align 8
  store i8 %164, ptr %165, align 1
  %167 = load i64, ptr %20, align 8
  %168 = add i64 %167, -1
  store i64 %168, ptr %20, align 8
  store i32 0, ptr %15, align 4
  store i32 8, ptr %16, align 4
  br label %169

169:                                              ; preds = %162, %153
  br label %58

170:                                              ; preds = %161, %147, %112, %91
  %171 = load i32, ptr %14, align 4
  %172 = load i32, ptr %16, align 4
  %173 = icmp uge i32 %171, %172
  br i1 %173, label %174, label %186

174:                                              ; preds = %170
  %175 = load i32, ptr %15, align 4
  %176 = load i32, ptr %14, align 4
  %177 = load i32, ptr %16, align 4
  %178 = sub i32 %176, %177
  %179 = shl i32 %175, %178
  %180 = load i32, ptr %13, align 4
  %181 = or i32 %180, %179
  store i32 %181, ptr %13, align 4
  %182 = load i32, ptr %16, align 4
  %183 = sub i32 8, %182
  %184 = load i32, ptr %14, align 4
  %185 = add i32 %184, %183
  store i32 %185, ptr %14, align 4
  br label %198

186:                                              ; preds = %170
  %187 = load i32, ptr %15, align 4
  %188 = load i32, ptr %16, align 4
  %189 = load i32, ptr %14, align 4
  %190 = sub i32 %188, %189
  %191 = lshr i32 %187, %190
  %192 = load i32, ptr %13, align 4
  %193 = or i32 %192, %191
  store i32 %193, ptr %13, align 4
  %194 = load i32, ptr %16, align 4
  %195 = sub i32 8, %194
  %196 = load i32, ptr %14, align 4
  %197 = add i32 %196, %195
  store i32 %197, ptr %14, align 4
  br label %198

198:                                              ; preds = %186, %174
  %199 = load i32, ptr %13, align 4
  %200 = load ptr, ptr %7, align 8
  %201 = getelementptr inbounds %struct._php_conv_base64_decode, ptr %200, i32 0, i32 1
  store i32 %199, ptr %201, align 8
  %202 = load i32, ptr %14, align 4
  %203 = load ptr, ptr %7, align 8
  %204 = getelementptr inbounds %struct._php_conv_base64_decode, ptr %203, i32 0, i32 2
  store i32 %202, ptr %204, align 4
  %205 = load i32, ptr %21, align 4
  %206 = load ptr, ptr %7, align 8
  %207 = getelementptr inbounds %struct._php_conv_base64_decode, ptr %206, i32 0, i32 3
  store i32 %205, ptr %207, align 8
  %208 = load ptr, ptr %17, align 8
  %209 = load ptr, ptr %8, align 8
  store ptr %208, ptr %209, align 8
  %210 = load i64, ptr %19, align 8
  %211 = load ptr, ptr %9, align 8
  store i64 %210, ptr %211, align 8
  %212 = load ptr, ptr %18, align 8
  %213 = load ptr, ptr %10, align 8
  store ptr %212, ptr %213, align 8
  %214 = load i64, ptr %20, align 8
  %215 = load ptr, ptr %11, align 8
  store i64 %214, ptr %215, align 8
  %216 = load i32, ptr %12, align 4
  store i32 %216, ptr %6, align 4
  br label %217

217:                                              ; preds = %198, %39, %38
  %218 = load i32, ptr %6, align 4
  ret i32 %218
}