; Function Attrs: nofree norecurse nosync nounwind memory(readwrite, inaccessiblemem: none) uwtable
define internal i32 @php_conv_base64_decode_convert(ptr nocapture noundef %0, ptr noundef %1, ptr noundef %2, ptr nocapture noundef %3, ptr nocapture noundef %4) #10 {
  %6 = icmp eq ptr %1, null
  %7 = icmp eq ptr %2, null
  %or.cond = or i1 %6, %7
  br i1 %or.cond, label %8, label %15

8:                                                ; preds = %5
  %9 = getelementptr inbounds i8, ptr %0, i64 28
  %10 = load i32, ptr %9, align 4
  %.not129 = icmp eq i32 %10, 0
  br i1 %.not129, label %11, label %77

11:                                               ; preds = %8
  %12 = getelementptr inbounds i8, ptr %0, i64 20
  %13 = load i32, ptr %12, align 4
  %14 = icmp eq i32 %13, 0
  %spec.select = select i1 %14, i32 0, i32 4
  br label %77

15:                                               ; preds = %5
  %16 = load ptr, ptr %1, align 8
  %17 = load ptr, ptr %3, align 8
  %18 = load i64, ptr %2, align 8
  %19 = load i64, ptr %4, align 8
  %20 = getelementptr inbounds i8, ptr %0, i64 16
  %21 = load i32, ptr %20, align 8
  %22 = getelementptr inbounds i8, ptr %0, i64 20
  %23 = load i32, ptr %22, align 4
  %24 = getelementptr inbounds i8, ptr %0, i64 24
  %25 = load i32, ptr %24, align 8
  %26 = getelementptr inbounds i8, ptr %0, i64 28
  br label %.outer

.outer:                                           ; preds = %69, %15
  %.0110.ph = phi i32 [ %.2112, %69 ], [ %21, %15 ]
  %.0105.ph = phi i32 [ %.2107, %69 ], [ %23, %15 ]
  %.094.ph = phi ptr [ %.195, %69 ], [ %16, %15 ]
  %.092.ph = phi ptr [ %71, %69 ], [ %17, %15 ]
  %.089.ph = phi i64 [ %.190, %69 ], [ %18, %15 ]
  %.087.ph = phi i64 [ %72, %69 ], [ %19, %15 ]
  %.086.ph = phi i32 [ %.1, %69 ], [ %25, %15 ]
  br label %27

27:                                               ; preds = %.outer, %64
  %.0110 = phi i32 [ %.2112, %64 ], [ %.0110.ph, %.outer ]
  %.0105 = phi i32 [ %.2107, %64 ], [ %.0105.ph, %.outer ]
  %.0100 = phi i32 [ %.2102, %64 ], [ 0, %.outer ]
  %.097 = phi i32 [ %.299, %64 ], [ 8, %.outer ]
  %.094 = phi ptr [ %.195, %64 ], [ %.094.ph, %.outer ]
  %.089 = phi i64 [ %.190, %64 ], [ %.089.ph, %.outer ]
  %.086 = phi i32 [ %.1, %64 ], [ %.086.ph, %.outer ]
  %.not = icmp ult i32 %.097, %.0105
  br i1 %.not, label %.thread, label %33

.thread:                                          ; preds = %27
  %28 = sub i32 %.0105, %.097
  %29 = lshr i32 %.0110, %28
  %30 = sub i32 16, %28
  %31 = lshr i32 65535, %30
  %32 = and i32 %31, %.0110
  %.1101134 = or i32 %29, %.0100
  br label %64

33:                                               ; preds = %27
  %34 = sub i32 %.097, %.0105
  %35 = shl i32 %.0110, %34
  %.1101 = or i32 %35, %.0100
  %.not122 = icmp eq i32 %34, 0
  br i1 %.not122, label %64, label %36

36:                                               ; preds = %33
  %37 = icmp eq i64 %.089, 0
  br i1 %37, label %.loopexit, label %38

38:                                               ; preds = %36
  %39 = getelementptr inbounds i8, ptr %.094, i64 1
  %40 = load i8, ptr %.094, align 1
  %41 = zext i8 %40 to i64
  %42 = getelementptr inbounds [256 x i32], ptr @b64_tbl_dec, i64 0, i64 %41
  %43 = load i32, ptr %42, align 4
  %44 = add i64 %.089, -1
  %45 = and i32 %43, 128
  %46 = or i32 %45, %.086
  %47 = and i32 %43, 192
  %.not123 = icmp eq i32 %47, 0
  %.not124 = icmp eq i32 %46, 0
  br i1 %.not123, label %48, label %61

48:                                               ; preds = %38
  br i1 %.not124, label %49, label %.loopexit

49:                                               ; preds = %48
  %50 = icmp ugt i32 %34, 5
  br i1 %50, label %51, label %55

51:                                               ; preds = %49
  %52 = add i32 %34, -6
  %53 = shl i32 %43, %52
  %54 = or i32 %53, %.1101
  br label %64

55:                                               ; preds = %49
  %56 = sub nuw nsw i32 6, %34
  %57 = lshr i32 %43, %56
  %58 = or i32 %57, %.1101
  %59 = lshr i32 63, %34
  %60 = and i32 %43, %59
  br label %64

61:                                               ; preds = %38
  br i1 %.not124, label %64, label %62

62:                                               ; preds = %61
  switch i32 %34, label %63 [
    i32 8, label %.loopexit
    i32 2, label %.loopexit
  ]

63:                                               ; preds = %62
  store i32 1, ptr %26, align 4
  br label %64

64:                                               ; preds = %.thread, %55, %51, %63, %61, %33
  %.2112 = phi i32 [ %.0110, %63 ], [ %.0110, %61 ], [ 0, %51 ], [ %60, %55 ], [ %.0110, %33 ], [ %32, %.thread ]
  %.2107 = phi i32 [ 0, %63 ], [ 0, %61 ], [ 0, %51 ], [ %56, %55 ], [ 0, %33 ], [ %28, %.thread ]
  %.2102 = phi i32 [ %.1101, %63 ], [ %.1101, %61 ], [ %54, %51 ], [ %58, %55 ], [ %.1101, %33 ], [ %.1101134, %.thread ]
  %.299 = phi i32 [ %34, %63 ], [ %34, %61 ], [ %52, %51 ], [ 0, %55 ], [ 0, %33 ], [ 0, %.thread ]
  %.195 = phi ptr [ %39, %63 ], [ %39, %61 ], [ %39, %51 ], [ %39, %55 ], [ %.094, %33 ], [ %.094, %.thread ]
  %.190 = phi i64 [ %44, %63 ], [ %44, %61 ], [ %44, %51 ], [ %44, %55 ], [ %.089, %33 ], [ %.089, %.thread ]
  %.1 = phi i32 [ %46, %63 ], [ 0, %61 ], [ 0, %51 ], [ 0, %55 ], [ %.086, %33 ], [ %.086, %.thread ]
  %65 = or i32 %.1, %.299
  %66 = icmp eq i32 %65, 0
  br i1 %66, label %67, label %27

67:                                               ; preds = %64
  %68 = icmp eq i64 %.087.ph, 0
  br i1 %68, label %.loopexit, label %69

69:                                               ; preds = %67
  %70 = trunc i32 %.2102 to i8
  %71 = getelementptr inbounds i8, ptr %.092.ph, i64 1
  store i8 %70, ptr %.092.ph, align 1
  %72 = add i64 %.087.ph, -1
  br label %.outer

.loopexit:                                        ; preds = %67, %62, %62, %48, %36
  %.087.lcssa = phi i64 [ %.087.ph, %36 ], [ %.087.ph, %48 ], [ %.087.ph, %62 ], [ %.087.ph, %62 ], [ 0, %67 ]
  %.0115 = phi i32 [ 0, %36 ], [ 3, %48 ], [ 3, %62 ], [ 3, %62 ], [ 2, %67 ]
  %.3113 = phi i32 [ %.0110, %36 ], [ %.0110, %48 ], [ %.0110, %62 ], [ %.0110, %62 ], [ %.2112, %67 ]
  %.3108 = phi i32 [ 0, %36 ], [ 0, %48 ], [ 0, %62 ], [ 0, %62 ], [ %.2107, %67 ]
  %.4104 = phi i32 [ %.1101, %36 ], [ %.1101, %48 ], [ %.1101, %62 ], [ %.1101, %62 ], [ %.2102, %67 ]
  %.4 = phi i32 [ %34, %36 ], [ %34, %48 ], [ %34, %62 ], [ %34, %62 ], [ %.299, %67 ]
  %.296 = phi ptr [ %.094, %36 ], [ %39, %48 ], [ %39, %62 ], [ %39, %62 ], [ %.195, %67 ]
  %.291 = phi i64 [ 0, %36 ], [ %44, %48 ], [ %44, %62 ], [ %44, %62 ], [ %.190, %67 ]
  %.2 = phi i32 [ %.086, %36 ], [ %46, %48 ], [ %46, %62 ], [ %46, %62 ], [ %.1, %67 ]
  %.not126 = icmp ult i32 %.3108, %.4
  %73 = sub i32 %.3108, %.4
  %74 = shl i32 %.4104, %73
  %75 = sub i32 %.4, %.3108
  %76 = lshr i32 %.4104, %75
  %.pn128 = select i1 %.not126, i32 %76, i32 %74
  %.4109 = add i32 %73, 8
  %.4114 = or i32 %.pn128, %.3113
  store i32 %.4114, ptr %20, align 8
  store i32 %.4109, ptr %22, align 4
  store i32 %.2, ptr %24, align 8
  store ptr %.296, ptr %1, align 8
  store i64 %.291, ptr %2, align 8
  store ptr %.092.ph, ptr %3, align 8
  store i64 %.087.lcssa, ptr %4, align 8
  br label %77

77:                                               ; preds = %11, %8, %.loopexit
  %.0 = phi i32 [ %.0115, %.loopexit ], [ 0, %8 ], [ %spec.select, %11 ]
  ret i32 %.0
}